target datalayout = "e-m:e-p270:32:32-p271:32:32-p272:64:64-i64:64-i128:128-f80:128-n8:16:32:64-S128"
target triple = "x86_64-pc-linux-gnu"

@blas_cpu_number = global i32 0, align 4
@blas_num_threads = global i32 0, align 4

; Function Attrs: nounwind uwtable
define i32 @blas_get_cpu_number() #0 {
  %1 = alloca i32, align 4
  %2 = alloca i32, align 4
  %3 = alloca i32, align 4
  %4 = alloca i32, align 4
  %5 = alloca i32, align 4
  call void @llvm.lifetime.start.p0(i64 4, ptr %2) #9
  call void @llvm.lifetime.start.p0(i64 4, ptr %3) #9
  store i32 0, ptr %3, align 4, !tbaa !3
  call void @llvm.lifetime.start.p0(i64 4, ptr %4) #9
  store i32 0, ptr %4, align 4, !tbaa !3
  %6 = load i32, ptr @blas_num_threads, align 4, !tbaa !3
  %7 = icmp ne i32 %6, 0
  br i1 %7, label %8, label %10

8:                                                ; preds = %0
  %9 = load i32, ptr @blas_num_threads, align 4, !tbaa !3
  store i32 %9, ptr %1, align 4
  store i32 1, ptr %5, align 4
  br label %55

10:                                               ; preds = %0
  %11 = call i32 @get_num_procs()
  store i32 %11, ptr %2, align 4, !tbaa !3
  %12 = call i32 @openblas_num_threads_env()
  store i32 %12, ptr %3, align 4, !tbaa !3
  %13 = load i32, ptr %3, align 4, !tbaa !3
  %14 = icmp slt i32 %13, 0
  br i1 %14, label %15, label %16

15:                                               ; preds = %10
  store i32 0, ptr %3, align 4, !tbaa !3
  br label %16

16:                                               ; preds = %15, %10
  %17 = load i32, ptr %3, align 4, !tbaa !3
  %18 = icmp eq i32 %17, 0
  br i1 %18, label %19, label %25

19:                                               ; preds = %16
  %20 = call i32 @openblas_goto_num_threads_env()
  store i32 %20, ptr %3, align 4, !tbaa !3
  %21 = load i32, ptr %3, align 4, !tbaa !3
  %22 = icmp slt i32 %21, 0
  br i1 %22, label %23, label %24

23:                                               ; preds = %19
  store i32 0, ptr %3, align 4, !tbaa !3
  br label %24

24:                                               ; preds = %23, %19
  br label %25

25:                                               ; preds = %24, %16
  %26 = call i32 @openblas_omp_num_threads_env()
  store i32 %26, ptr %4, align 4, !tbaa !3
  %27 = load i32, ptr %4, align 4, !tbaa !3
  %28 = icmp slt i32 %27, 0
  br i1 %28, label %29, label %30

29:                                               ; preds = %25
  store i32 0, ptr %4, align 4, !tbaa !3
  br label %30

30:                                               ; preds = %29, %25
  %31 = load i32, ptr %3, align 4, !tbaa !3
  %32 = icmp sgt i32 %31, 0
  br i1 %32, label %33, label %35

33:                                               ; preds = %30
  %34 = load i32, ptr %3, align 4, !tbaa !3
  store i32 %34, ptr @blas_num_threads, align 4, !tbaa !3
  br label %42

35:                                               ; preds = %30
  %36 = load i32, ptr %4, align 4, !tbaa !3
  %37 = icmp sgt i32 %36, 0
  br i1 %37, label %38, label %40

38:                                               ; preds = %35
  %39 = load i32, ptr %4, align 4, !tbaa !3
  store i32 %39, ptr @blas_num_threads, align 4, !tbaa !3
  br label %41

40:                                               ; preds = %35
  store i32 16, ptr @blas_num_threads, align 4, !tbaa !3
  br label %41

41:                                               ; preds = %40, %38
  br label %42

42:                                               ; preds = %41, %33
  %43 = load i32, ptr @blas_num_threads, align 4, !tbaa !3
  %44 = load i32, ptr %2, align 4, !tbaa !3
  %45 = icmp sgt i32 %43, %44
  br i1 %45, label %46, label %48

46:                                               ; preds = %42
  %47 = load i32, ptr %2, align 4, !tbaa !3
  store i32 %47, ptr @blas_num_threads, align 4, !tbaa !3
  br label %48

48:                                               ; preds = %46, %42
  %49 = load i32, ptr @blas_num_threads, align 4, !tbaa !3
  %50 = icmp sgt i32 %49, 16
  br i1 %50, label %51, label %52

51:                                               ; preds = %48
  store i32 16, ptr @blas_num_threads, align 4, !tbaa !3
  br label %52

52:                                               ; preds = %51, %48
  %53 = load i32, ptr @blas_num_threads, align 4, !tbaa !3
  store i32 %53, ptr @blas_cpu_number, align 4, !tbaa !3
  %54 = load i32, ptr @blas_num_threads, align 4, !tbaa !3
  store i32 %54, ptr %1, align 4
  store i32 1, ptr %5, align 4
  br label %55

55:                                               ; preds = %52, %8
  call void @llvm.lifetime.end.p0(i64 4, ptr %4) #9
  call void @llvm.lifetime.end.p0(i64 4, ptr %3) #9
  call void @llvm.lifetime.end.p0(i64 4, ptr %2) #9
  %56 = load i32, ptr %1, align 4
  ret i32 %56
}