; Function Attrs: nounwind uwtable
define i32 @blas_get_cpu_number() local_unnamed_addr #0 {
  %1 = load i32, ptr @blas_num_threads, align 4, !tbaa !3
  %.not = icmp eq i32 %1, 0
  br i1 %.not, label %2, label %13

2:                                                ; preds = %0
  %3 = tail call i32 @get_num_procs()
  %4 = tail call i32 @openblas_num_threads_env() #15
  %5 = icmp slt i32 %4, 1
  br i1 %5, label %6, label %8

6:                                                ; preds = %2
  %7 = tail call i32 @openblas_goto_num_threads_env() #15
  %spec.store.select1 = tail call i32 @llvm.smax.i32(i32 %7, i32 0)
  br label %8

8:                                                ; preds = %6, %2
  %.0 = phi i32 [ %spec.store.select1, %6 ], [ %4, %2 ]
  %9 = tail call i32 @openblas_omp_num_threads_env() #15
  %spec.store.select2 = tail call i32 @llvm.smax.i32(i32 %9, i32 0)
  %.not16 = icmp eq i32 %.0, 0
  %.not17 = icmp slt i32 %9, 1
  %.spec.store.select2 = select i1 %.not17, i32 16, i32 %spec.store.select2
  %spec.store.select2.sink = select i1 %.not16, i32 %.spec.store.select2, i32 %.0
  %.not18 = icmp sgt i32 %spec.store.select2.sink, %3
  %10 = tail call i32 @llvm.smin.i32(i32 %spec.store.select2.sink, i32 %3)
  %11 = icmp sgt i32 %10, 16
  %12 = or i1 %.not18, %11
  %simplifycfg.merge = tail call i32 @llvm.smin.i32(i32 %10, i32 16)
  %storemerge = select i1 %12, i32 %simplifycfg.merge, i32 %spec.store.select2.sink
  store i32 %storemerge, ptr @blas_num_threads, align 4, !tbaa !3
  store i32 %storemerge, ptr @blas_cpu_number, align 4, !tbaa !3
  br label %13

13:                                               ; preds = %0, %8
  %.013 = phi i32 [ %storemerge, %8 ], [ %1, %0 ]
  ret i32 %.013
}